target datalayout = "e-m:e-p270:32:32-p271:32:32-p272:64:64-i64:64-i128:128-f80:128-n8:16:32:64-S128"
target triple = "x86_64-pc-linux-gnu"

%"class.base::Pickle" = type { ptr, ptr, i64, i64, i64 }
%"struct.base::Pickle::Header" = type { i32 }

; Function Attrs: mustprogress uwtable
define void @_ZN4base6PickleC2ERKS0_(ptr noundef nonnull align 8 dereferenceable(40) %0, ptr noundef nonnull align 8 dereferenceable(40) %1) unnamed_addr #0 align 2 {
  %3 = alloca ptr, align 8
  %4 = alloca ptr, align 8
  store ptr %0, ptr %3, align 8, !tbaa !21
  store ptr %1, ptr %4, align 8, !tbaa !21
  %5 = load ptr, ptr %3, align 8
  store ptr getelementptr inbounds inrange(-16, 40) ({ [7 x ptr] }, ptr @_ZTVN4base6PickleE, i32 0, i32 0, i32 2), ptr %5, align 8, !tbaa !75
  %6 = getelementptr inbounds nuw %"class.base::Pickle", ptr %5, i32 0, i32 1
  store ptr null, ptr %6, align 8, !tbaa !32
  %7 = getelementptr inbounds nuw %"class.base::Pickle", ptr %5, i32 0, i32 2
  %8 = load ptr, ptr %4, align 8, !tbaa !21
  %9 = getelementptr inbounds nuw %"class.base::Pickle", ptr %8, i32 0, i32 2
  %10 = load i64, ptr %9, align 8, !tbaa !35
  store i64 %10, ptr %7, align 8, !tbaa !35
  %11 = getelementptr inbounds nuw %"class.base::Pickle", ptr %5, i32 0, i32 3
  store i64 0, ptr %11, align 8, !tbaa !79
  %12 = getelementptr inbounds nuw %"class.base::Pickle", ptr %5, i32 0, i32 4
  %13 = load ptr, ptr %4, align 8, !tbaa !21
  %14 = getelementptr inbounds nuw %"class.base::Pickle", ptr %13, i32 0, i32 4
  %15 = load i64, ptr %14, align 8, !tbaa !80
  store i64 %15, ptr %12, align 8, !tbaa !80
  %16 = load ptr, ptr %4, align 8, !tbaa !21
  %17 = getelementptr inbounds nuw %"class.base::Pickle", ptr %16, i32 0, i32 1
  %18 = load ptr, ptr %17, align 8, !tbaa !32
  %19 = getelementptr inbounds nuw %"struct.base::Pickle::Header", ptr %18, i32 0, i32 0
  %20 = load i32, ptr %19, align 4, !tbaa !36
  %21 = zext i32 %20 to i64
  call void @_ZN4base6Pickle6ResizeEm(ptr noundef nonnull align 8 dereferenceable(40) %5, i64 noundef %21)
  %22 = getelementptr inbounds nuw %"class.base::Pickle", ptr %5, i32 0, i32 1
  %23 = load ptr, ptr %22, align 8, !tbaa !32
  %24 = load ptr, ptr %4, align 8, !tbaa !21
  %25 = getelementptr inbounds nuw %"class.base::Pickle", ptr %24, i32 0, i32 1
  %26 = load ptr, ptr %25, align 8, !tbaa !32
  %27 = getelementptr inbounds nuw %"class.base::Pickle", ptr %5, i32 0, i32 2
  %28 = load i64, ptr %27, align 8, !tbaa !35
  %29 = load ptr, ptr %4, align 8, !tbaa !21
  %30 = getelementptr inbounds nuw %"class.base::Pickle", ptr %29, i32 0, i32 1
  %31 = load ptr, ptr %30, align 8, !tbaa !32
  %32 = getelementptr inbounds nuw %"struct.base::Pickle::Header", ptr %31, i32 0, i32 0
  %33 = load i32, ptr %32, align 4, !tbaa !36
  %34 = zext i32 %33 to i64
  %35 = add i64 %28, %34
  call void @llvm.memcpy.p0.p0.i64(ptr align 4 %23, ptr align 4 %26, i64 %35, i1 false)
  ret void
}