; Function Attrs: mustprogress uwtable
define void @_ZN4base6PickleC2ERKS0_(ptr noundef nonnull align 8 dereferenceable(40) initializes((0, 40)) %0, ptr noundef nonnull readonly align 8 captures(none) dereferenceable(40) %1) unnamed_addr #0 align 2 {
  store ptr getelementptr inbounds nuw inrange(-16, 40) (i8, ptr @_ZTVN4base6PickleE, i64 16), ptr %0, align 8, !tbaa !44
  %3 = getelementptr inbounds nuw i8, ptr %0, i64 8
  store ptr null, ptr %3, align 8, !tbaa !13
  %4 = getelementptr inbounds nuw i8, ptr %0, i64 16
  %5 = getelementptr inbounds nuw i8, ptr %1, i64 16
  %6 = load i64, ptr %5, align 8, !tbaa !14
  store i64 %6, ptr %4, align 8, !tbaa !14
  %7 = getelementptr inbounds nuw i8, ptr %0, i64 24
  store i64 0, ptr %7, align 8, !tbaa !12
  %8 = getelementptr inbounds nuw i8, ptr %0, i64 32
  %9 = getelementptr inbounds nuw i8, ptr %1, i64 32
  %10 = load i64, ptr %9, align 8, !tbaa !8
  store i64 %10, ptr %8, align 8, !tbaa !8
  %11 = getelementptr inbounds nuw i8, ptr %1, i64 8
  %12 = load ptr, ptr %11, align 8, !tbaa !13
  %13 = load i32, ptr %12, align 4, !tbaa !15
  %14 = zext i32 %13 to i64
  tail call void @_ZN4base6Pickle6ResizeEm(ptr noundef nonnull align 8 dereferenceable(40) %0, i64 noundef %14)
  %15 = load ptr, ptr %3, align 8, !tbaa !13
  %16 = load ptr, ptr %11, align 8, !tbaa !13
  %17 = load i64, ptr %4, align 8, !tbaa !14
  %18 = load i32, ptr %16, align 4, !tbaa !15
  %19 = zext i32 %18 to i64
  %20 = add i64 %17, %19
  tail call void @llvm.memcpy.p0.p0.i64(ptr align 4 %15, ptr nonnull align 4 %16, i64 %20, i1 false)
  ret void
}